; Function Attrs: nounwind uwtable
define void @duckdb_je_large_prof_info_get(ptr noundef %0, ptr noundef %1, ptr noundef initializes((8, 16)) %2, i1 noundef zeroext %3) local_unnamed_addr #0 {
  %5 = getelementptr inbounds nuw i8, ptr %1, i64 80
  %6 = load atomic i64, ptr %5 acquire, align 8
  %.0.i.i = inttoptr i64 %6 to ptr
  %7 = getelementptr inbounds nuw i8, ptr %2, i64 8
  store ptr %.0.i.i, ptr %7, align 8, !tbaa !121
  %switch = icmp ult i64 %6, 2
  br i1 %switch, label %13, label %8

8:                                                ; preds = %4
  %9 = getelementptr inbounds nuw i8, ptr %1, i64 64
  tail call void @duckdb_je_nstime_copy(ptr noundef nonnull %2, ptr noundef nonnull %9) #11
  %10 = getelementptr i8, ptr %1, i64 72
  %.val = load i64, ptr %10, align 8, !tbaa !4
  %11 = getelementptr inbounds nuw i8, ptr %2, i64 16
  store i64 %.val, ptr %11, align 8, !tbaa !124
  br i1 %3, label %12, label %13

12:                                               ; preds = %8
  tail call void @duckdb_je_prof_recent_alloc_reset(ptr noundef %0, ptr noundef nonnull %1) #11
  br label %13

13:                                               ; preds = %4, %8, %12
  ret void
}